	.file	"main.cpp"
	.text
.Ltext0:
	.section	.rodata
	.type	_ZStL19piecewise_construct, @object
	.size	_ZStL19piecewise_construct, 1
_ZStL19piecewise_construct:
	.zero	1
	.local	_ZStL8__ioinit
	.comm	_ZStL8__ioinit,1,1
	.text
	.globl	main
	.type	main, @function
main:
.LFB1576:
	.file 1 "main.cpp"
	.loc 1 19 12
	.cfi_startproc
	pushq	%rbp
	.cfi_def_cfa_offset 16
	.cfi_offset 6, -16
	movq	%rsp, %rbp
	.cfi_def_cfa_register 6
	.loc 1 21 5
	movl	$1, -12(%rbp)
	.loc 1 23 5
	movl	$2, -8(%rbp)
	.loc 1 25 5
	movl	-12(%rbp), %edx
	movl	-8(%rbp), %eax
	addl	%edx, %eax
	movl	%eax, -4(%rbp)
	.loc 1 26 10
	movl	$0, %eax
	.loc 1 27 1
	popq	%rbp
	.cfi_def_cfa 7, 8
	ret
	.cfi_endproc
.LFE1576:
	.size	main, .-main
	.type	_Z41__static_initialization_and_destruction_0ii, @function
_Z41__static_initialization_and_destruction_0ii:
.LFB2069:
	.loc 1 27 1
	.cfi_startproc
	pushq	%rbp
	.cfi_def_cfa_offset 16
	.cfi_offset 6, -16
	movq	%rsp, %rbp
	.cfi_def_cfa_register 6
	subq	$16, %rsp
	movl	%edi, -4(%rbp)
	movl	%esi, -8(%rbp)
	.loc 1 27 1
	cmpl	$1, -4(%rbp)
	jne	.L5
	.loc 1 27 1 is_stmt 0 discriminator 1
	cmpl	$65535, -8(%rbp)
	jne	.L5
	.file 2 "/usr/include/c++/10.2.0/iostream"
	.loc 2 74 25 is_stmt 1
	leaq	_ZStL8__ioinit(%rip), %rdi
	call	_ZNSt8ios_base4InitC1Ev@PLT
	leaq	__dso_handle(%rip), %rdx
	leaq	_ZStL8__ioinit(%rip), %rsi
	movq	_ZNSt8ios_base4InitD1Ev@GOTPCREL(%rip), %rax
	movq	%rax, %rdi
	call	__cxa_atexit@PLT
.L5:
	.loc 1 27 1
	nop
	leave
	.cfi_def_cfa 7, 8
	ret
	.cfi_endproc
.LFE2069:
	.size	_Z41__static_initialization_and_destruction_0ii, .-_Z41__static_initialization_and_destruction_0ii
	.type	_GLOBAL__sub_I_main, @function
_GLOBAL__sub_I_main:
.LFB2070:
	.loc 1 27 1
	.cfi_startproc
	pushq	%rbp
	.cfi_def_cfa_offset 16
	.cfi_offset 6, -16
	movq	%rsp, %rbp
	.cfi_def_cfa_register 6
	.loc 1 27 1
	movl	$65535, %esi
	movl	$1, %edi
	call	_Z41__static_initialization_and_destruction_0ii
	popq	%rbp
	.cfi_def_cfa 7, 8
	ret
	.cfi_endproc
.LFE2070:
	.size	_GLOBAL__sub_I_main, .-_GLOBAL__sub_I_main
	.section	.init_array,"aw"
	.align 8
	.quad	_GLOBAL__sub_I_main
	.text
.Letext0:
	.file 3 "/usr/include/c++/10.2.0/cwchar"
	.file 4 "/usr/include/c++/10.2.0/bits/exception_ptr.h"
	.file 5 "/usr/include/c++/10.2.0/type_traits"
	.file 6 "/usr/include/c++/10.2.0/bits/cpp_type_traits.h"
	.file 7 "/usr/include/c++/10.2.0/bits/stl_pair.h"
	.file 8 "/usr/include/c++/10.2.0/debug/debug.h"
	.file 9 "/usr/include/c++/10.2.0/cstdint"
	.file 10 "/usr/include/c++/10.2.0/clocale"
	.file 11 "/usr/include/c++/10.2.0/cstdlib"
	.file 12 "/usr/include/c++/10.2.0/cstdio"
	.file 13 "/usr/include/c++/10.2.0/x86_64-pc-linux-gnu/bits/c++config.h"
	.file 14 "/usr/include/c++/10.2.0/bits/basic_string.h"
	.file 15 "/usr/include/c++/10.2.0/system_error"
	.file 16 "/usr/include/c++/10.2.0/bits/ios_base.h"
	.file 17 "/usr/include/c++/10.2.0/cwctype"
	.file 18 "/usr/include/c++/10.2.0/bits/predefined_ops.h"
	.file 19 "/usr/lib/gcc/x86_64-pc-linux-gnu/10.2.0/include/stddef.h"
	.file 20 "<built-in>"
	.file 21 "/usr/include/bits/types/wint_t.h"
	.file 22 "/usr/include/bits/types/__mbstate_t.h"
	.file 23 "/usr/include/bits/types/mbstate_t.h"
	.file 24 "/usr/include/bits/types/__FILE.h"
	.file 25 "/usr/include/bits/types/struct_FILE.h"
	.file 26 "/usr/include/bits/types/FILE.h"
	.file 27 "/usr/include/wchar.h"
	.file 28 "/usr/include/bits/types/struct_tm.h"
	.file 29 "/usr/include/bits/types.h"
	.file 30 "/usr/include/bits/stdint-intn.h"
	.file 31 "/usr/include/bits/stdint-uintn.h"
	.file 32 "/usr/include/stdint.h"
	.file 33 "/usr/include/locale.h"
	.file 34 "/usr/include/c++/10.2.0/x86_64-pc-linux-gnu/bits/atomic_word.h"
	.file 35 "/usr/include/stdlib.h"
	.file 36 "/usr/include/bits/types/__fpos_t.h"
	.file 37 "/usr/include/stdio.h"
	.file 38 "/usr/include/bits/wctype-wchar.h"
	.file 39 "/usr/include/wctype.h"
	.section	.note.GNU-stack,"",@progbits
